target datalayout = "e-m:e-p270:32:32-p271:32:32-p272:64:64-i64:64-i128:128-f80:128-n8:16:32:64-S128"
target triple = "x86_64-pc-linux-gnu"

%"class.icu_77::UObject" = type { ptr }
%"class.icu_77::Locale" = type <{ %"class.icu_77::UObject", [12 x i8], [6 x i8], [4 x i8], [2 x i8], i32, [4 x i8], ptr, [157 x i8], [3 x i8], ptr, i8, [7 x i8] }>
%"class.icu_77::number::SimpleNumberFormatter" = type { i32, ptr, ptr, ptr }
%"struct.icu_77::number::impl::USimpleNumberFormatterData" = type { %"class.icu_77::IcuCApiHelper.15", %"class.icu_77::number::SimpleNumberFormatter" }
%"class.icu_77::IcuCApiHelper.15" = type { i32 }

; Function Attrs: mustprogress nounwind uwtable
define linkonce_odr void @_ZN6icu_776number21SimpleNumberFormatterC2Ev(ptr noundef nonnull align 8 dereferenceable(32) %0) unnamed_addr #0 comdat align 2 {
  %2 = alloca ptr, align 8
  store ptr %0, ptr %2, align 8, !tbaa !139
  %3 = load ptr, ptr %2, align 8
  %4 = getelementptr inbounds nuw %"class.icu_77::number::SimpleNumberFormatter", ptr %3, i32 0, i32 0
  store i32 2, ptr %4, align 8, !tbaa !141
  %5 = getelementptr inbounds nuw %"class.icu_77::number::SimpleNumberFormatter", ptr %3, i32 0, i32 1
  store ptr null, ptr %5, align 8, !tbaa !147
  %6 = getelementptr inbounds nuw %"class.icu_77::number::SimpleNumberFormatter", ptr %3, i32 0, i32 2
  store ptr null, ptr %6, align 8, !tbaa !148
  %7 = getelementptr inbounds nuw %"class.icu_77::number::SimpleNumberFormatter", ptr %3, i32 0, i32 3
  store ptr null, ptr %7, align 8, !tbaa !149
  ret void
}

; Function Attrs: inlinehint mustprogress nounwind uwtable
define linkonce_odr void @_ZN6icu_7713IcuCApiHelperI22USimpleNumberFormatterNS_6number4impl26USimpleNumberFormatterDataELi1397638656EEC2Ev(ptr noundef nonnull align 4 dereferenceable(4) %0) unnamed_addr #2 comdat align 2 {
  %2 = alloca ptr, align 8
  store ptr %0, ptr %2, align 8, !tbaa !150
  %3 = load ptr, ptr %2, align 8
  %4 = getelementptr inbounds nuw %"class.icu_77::IcuCApiHelper.15", ptr %3, i32 0, i32 0
  store i32 1397638656, ptr %4, align 4, !tbaa !155
  ret void
}

; Function Attrs: mustprogress nounwind uwtable
define linkonce_odr noundef ptr @_ZN6icu_7713IcuCApiHelperI22USimpleNumberFormatterNS_6number4impl26USimpleNumberFormatterDataELi1397638656EE10exportForCEv(ptr noundef nonnull align 4 dereferenceable(4) %0) #0 comdat align 2 {
  %2 = alloca ptr, align 8
  store ptr %0, ptr %2, align 8, !tbaa !150
  %3 = load ptr, ptr %2, align 8
  ret ptr %3
}

; Function Attrs: mustprogress nounwind uwtable
define linkonce_odr void @_ZN6icu_776number21SimpleNumberFormatterD2Ev(ptr noundef nonnull align 8 dereferenceable(32) %0) unnamed_addr #0 comdat align 2 personality ptr @__gxx_personality_v0 {
  %2 = alloca ptr, align 8
  store ptr %0, ptr %2, align 8, !tbaa !139
  %3 = load ptr, ptr %2, align 8
  invoke void @_ZN6icu_776number21SimpleNumberFormatter7cleanupEv(ptr noundef nonnull align 8 dereferenceable(32) %3)
          to label %4 unwind label %5

4:                                                ; preds = %1
  ret void

5:                                                ; preds = %1
  %6 = landingpad { ptr, i32 }
          catch ptr null
  %7 = extractvalue { ptr, i32 } %6, 0
  call void @__clang_call_terminate(ptr %7) #13
  unreachable
}

; Function Attrs: mustprogress nounwind uwtable
define linkonce_odr noundef nonnull align 8 dereferenceable(32) ptr @_ZN6icu_776number21SimpleNumberFormatteraSEOS1_(ptr noundef nonnull align 8 dereferenceable(32) %0, ptr noundef nonnull align 8 dereferenceable(32) %1) #0 comdat align 2 personality ptr @__gxx_personality_v0 {
  %3 = alloca ptr, align 8
  %4 = alloca ptr, align 8
  store ptr %0, ptr %3, align 8, !tbaa !139
  store ptr %1, ptr %4, align 8, !tbaa !139
  %5 = load ptr, ptr %3, align 8
  invoke void @_ZN6icu_776number21SimpleNumberFormatter7cleanupEv(ptr noundef nonnull align 8 dereferenceable(32) %5)
          to label %6 unwind label %29

6:                                                ; preds = %2
  %7 = load ptr, ptr %4, align 8, !tbaa !139
  %8 = getelementptr inbounds nuw %"class.icu_77::number::SimpleNumberFormatter", ptr %7, i32 0, i32 0
  %9 = load i32, ptr %8, align 8, !tbaa !141
  %10 = getelementptr inbounds nuw %"class.icu_77::number::SimpleNumberFormatter", ptr %5, i32 0, i32 0
  store i32 %9, ptr %10, align 8, !tbaa !141
  %11 = load ptr, ptr %4, align 8, !tbaa !139
  %12 = getelementptr inbounds nuw %"class.icu_77::number::SimpleNumberFormatter", ptr %11, i32 0, i32 1
  %13 = load ptr, ptr %12, align 8, !tbaa !147
  %14 = getelementptr inbounds nuw %"class.icu_77::number::SimpleNumberFormatter", ptr %5, i32 0, i32 1
  store ptr %13, ptr %14, align 8, !tbaa !147
  %15 = load ptr, ptr %4, align 8, !tbaa !139
  %16 = getelementptr inbounds nuw %"class.icu_77::number::SimpleNumberFormatter", ptr %15, i32 0, i32 2
  %17 = load ptr, ptr %16, align 8, !tbaa !148
  %18 = getelementptr inbounds nuw %"class.icu_77::number::SimpleNumberFormatter", ptr %5, i32 0, i32 2
  store ptr %17, ptr %18, align 8, !tbaa !148
  %19 = load ptr, ptr %4, align 8, !tbaa !139
  %20 = getelementptr inbounds nuw %"class.icu_77::number::SimpleNumberFormatter", ptr %19, i32 0, i32 3
  %21 = load ptr, ptr %20, align 8, !tbaa !149
  %22 = getelementptr inbounds nuw %"class.icu_77::number::SimpleNumberFormatter", ptr %5, i32 0, i32 3
  store ptr %21, ptr %22, align 8, !tbaa !149
  %23 = load ptr, ptr %4, align 8, !tbaa !139
  %24 = getelementptr inbounds nuw %"class.icu_77::number::SimpleNumberFormatter", ptr %23, i32 0, i32 1
  store ptr null, ptr %24, align 8, !tbaa !147
  %25 = load ptr, ptr %4, align 8, !tbaa !139
  %26 = getelementptr inbounds nuw %"class.icu_77::number::SimpleNumberFormatter", ptr %25, i32 0, i32 2
  store ptr null, ptr %26, align 8, !tbaa !148
  %27 = load ptr, ptr %4, align 8, !tbaa !139
  %28 = getelementptr inbounds nuw %"class.icu_77::number::SimpleNumberFormatter", ptr %27, i32 0, i32 3
  store ptr null, ptr %28, align 8, !tbaa !149
  ret ptr %5

29:                                               ; preds = %2
  %30 = landingpad { ptr, i32 }
          catch ptr null
  %31 = extractvalue { ptr, i32 } %30, 0
  call void @__clang_call_terminate(ptr %31) #13
  unreachable
}

; Function Attrs: inlinehint mustprogress nounwind uwtable
define linkonce_odr void @_ZN6icu_776number4impl26USimpleNumberFormatterDataC2Ev(ptr noundef nonnull align 8 dereferenceable(40) %0) unnamed_addr #2 comdat align 2 {
  %2 = alloca ptr, align 8
  store ptr %0, ptr %2, align 8, !tbaa !137
  %3 = load ptr, ptr %2, align 8
  call void @_ZN6icu_7713IcuCApiHelperI22USimpleNumberFormatterNS_6number4impl26USimpleNumberFormatterDataELi1397638656EEC2Ev(ptr noundef nonnull align 4 dereferenceable(4) %3) #11
  %4 = getelementptr inbounds nuw %"struct.icu_77::number::impl::USimpleNumberFormatterData", ptr %3, i32 0, i32 1
  call void @_ZN6icu_776number21SimpleNumberFormatterC2Ev(ptr noundef nonnull align 8 dereferenceable(32) %4) #11
  ret void
}

; Function Attrs: mustprogress uwtable
define ptr @usnumf_openForLocale_77(ptr noundef %0, ptr noundef %1) #1 personality ptr @__gxx_personality_v0 {
  %3 = alloca ptr, align 8
  %4 = alloca ptr, align 8
  %5 = alloca ptr, align 8
  %6 = alloca ptr, align 8
  %7 = alloca i1, align 1
  %8 = alloca i32, align 4
  %9 = alloca %"class.icu_77::number::SimpleNumberFormatter", align 8
  %10 = alloca %"class.icu_77::Locale", align 8
  %11 = alloca ptr, align 8
  %12 = alloca i32, align 4
  store ptr %0, ptr %4, align 8, !tbaa !17
  store ptr %1, ptr %5, align 8, !tbaa !22
  call void @llvm.lifetime.start.p0(i64 8, ptr %6) #11
  %13 = call noundef ptr @_ZN6icu_777UMemorynwEm(i64 noundef 40) #11
  %14 = icmp eq ptr %13, null
  store i1 false, ptr %7, align 1
  br i1 %14, label %16, label %15

15:                                               ; preds = %2
  store i1 true, ptr %7, align 1
  call void @llvm.memset.p0.i64(ptr align 8 %13, i8 0, i64 40, i1 false)
  call void @_ZN6icu_776number4impl26USimpleNumberFormatterDataC2Ev(ptr noundef nonnull align 8 dereferenceable(40) %13) #11
  br label %16

16:                                               ; preds = %15, %2
  %17 = phi ptr [ %13, %15 ], [ null, %2 ]
  store ptr %17, ptr %6, align 8, !tbaa !137
  %18 = load ptr, ptr %6, align 8, !tbaa !137
  %19 = icmp eq ptr %18, null
  br i1 %19, label %20, label %22

20:                                               ; preds = %16
  %21 = load ptr, ptr %5, align 8, !tbaa !22
  store i32 7, ptr %21, align 4, !tbaa !15
  store ptr null, ptr %3, align 8
  store i32 1, ptr %8, align 4
  br label %35

22:                                               ; preds = %16
  call void @llvm.lifetime.start.p0(i64 32, ptr %9) #11
  call void @llvm.lifetime.start.p0(i64 224, ptr %10) #11
  %23 = load ptr, ptr %4, align 8, !tbaa !17
  call void @_ZN6icu_776LocaleC1EPKcS2_S2_S2_(ptr noundef nonnull align 8 dereferenceable(217) %10, ptr noundef %23, ptr noundef null, ptr noundef null, ptr noundef null)
  %24 = load ptr, ptr %5, align 8, !tbaa !22
  invoke void @_ZN6icu_776number21SimpleNumberFormatter9forLocaleERKNS_6LocaleER10UErrorCode(ptr dead_on_unwind writable sret(%"class.icu_77::number::SimpleNumberFormatter") align 8 %9, ptr noundef nonnull align 8 dereferenceable(217) %10, ptr noundef nonnull align 4 dereferenceable(4) %24)
          to label %25 unwind label %31

25:                                               ; preds = %22
  %26 = load ptr, ptr %6, align 8, !tbaa !137
  %27 = getelementptr inbounds nuw %"struct.icu_77::number::impl::USimpleNumberFormatterData", ptr %26, i32 0, i32 1
  %28 = call noundef nonnull align 8 dereferenceable(32) ptr @_ZN6icu_776number21SimpleNumberFormatteraSEOS1_(ptr noundef nonnull align 8 dereferenceable(32) %27, ptr noundef nonnull align 8 dereferenceable(32) %9) #11
  call void @_ZN6icu_776number21SimpleNumberFormatterD2Ev(ptr noundef nonnull align 8 dereferenceable(32) %9) #11
  call void @_ZN6icu_776LocaleD1Ev(ptr noundef nonnull align 8 dereferenceable(217) %10) #11
  call void @llvm.lifetime.end.p0(i64 224, ptr %10) #11
  call void @llvm.lifetime.end.p0(i64 32, ptr %9) #11
  %29 = load ptr, ptr %6, align 8, !tbaa !137
  %30 = call noundef ptr @_ZN6icu_7713IcuCApiHelperI22USimpleNumberFormatterNS_6number4impl26USimpleNumberFormatterDataELi1397638656EE10exportForCEv(ptr noundef nonnull align 4 dereferenceable(4) %29)
  store ptr %30, ptr %3, align 8
  store i32 1, ptr %8, align 4
  br label %35

31:                                               ; preds = %22
  %32 = landingpad { ptr, i32 }
          cleanup
  %33 = extractvalue { ptr, i32 } %32, 0
  store ptr %33, ptr %11, align 8
  %34 = extractvalue { ptr, i32 } %32, 1
  store i32 %34, ptr %12, align 4
  call void @_ZN6icu_776LocaleD1Ev(ptr noundef nonnull align 8 dereferenceable(217) %10) #11
  call void @llvm.lifetime.end.p0(i64 224, ptr %10) #11
  call void @llvm.lifetime.end.p0(i64 32, ptr %9) #11
  call void @llvm.lifetime.end.p0(i64 8, ptr %6) #11
  br label %37

35:                                               ; preds = %25, %20
  call void @llvm.lifetime.end.p0(i64 8, ptr %6) #11
  %36 = load ptr, ptr %3, align 8
  ret ptr %36

37:                                               ; preds = %31
  %38 = load ptr, ptr %11, align 8
  %39 = load i32, ptr %12, align 4
  %40 = insertvalue { ptr, i32 } poison, ptr %38, 0
  %41 = insertvalue { ptr, i32 } %40, i32 %39, 1
  resume { ptr, i32 } %41
}