; Function Attrs: mustprogress uwtable
define noundef ptr @usnumf_openForLocale_77(ptr noundef %0, ptr noundef %1) local_unnamed_addr #1 personality ptr @__gxx_personality_v0 {
  %3 = alloca %"class.icu_77::number::SimpleNumberFormatter", align 8
  %4 = alloca %"class.icu_77::Locale", align 8
  %5 = tail call noundef ptr @_ZN6icu_777UMemorynwEm(i64 noundef 40) #15
  %6 = icmp eq ptr %5, null
  br i1 %6, label %7, label %8

7:                                                ; preds = %2
  store i32 7, ptr %1, align 4, !tbaa !13
  br label %29

8:                                                ; preds = %2
  tail call void @llvm.memset.p0.i64(ptr noundef nonnull align 8 dereferenceable(40) %5, i8 0, i64 16, i1 false)
  store i32 1397638656, ptr %5, align 4, !tbaa !83
  %9 = getelementptr inbounds nuw i8, ptr %5, i64 8
  store i32 2, ptr %9, align 8, !tbaa !85
  %10 = getelementptr inbounds nuw i8, ptr %5, i64 16
  tail call void @llvm.memset.p0.i64(ptr noundef nonnull align 8 dereferenceable(24) %10, i8 0, i64 24, i1 false)
  call void @llvm.lifetime.start.p0(i64 32, ptr nonnull %3) #15
  call void @llvm.lifetime.start.p0(i64 224, ptr nonnull %4) #15
  call void @_ZN6icu_776LocaleC1EPKcS2_S2_S2_(ptr noundef nonnull align 8 dereferenceable(217) %4, ptr noundef %0, ptr noundef null, ptr noundef null, ptr noundef null)
  invoke void @_ZN6icu_776number21SimpleNumberFormatter9forLocaleERKNS_6LocaleER10UErrorCode(ptr dead_on_unwind nonnull writable sret(%"class.icu_77::number::SimpleNumberFormatter") align 8 %3, ptr noundef nonnull align 8 dereferenceable(217) %4, ptr noundef nonnull align 4 dereferenceable(4) %1)
          to label %11 unwind label %27

11:                                               ; preds = %8
  invoke void @_ZN6icu_776number21SimpleNumberFormatter7cleanupEv(ptr noundef nonnull align 8 dereferenceable(32) %9)
          to label %_ZN6icu_776number21SimpleNumberFormatteraSEOS1_.exit unwind label %12

12:                                               ; preds = %11
  %13 = landingpad { ptr, i32 }
          catch ptr null
  %14 = extractvalue { ptr, i32 } %13, 0
  call void @__clang_call_terminate(ptr %14) #17
  unreachable

_ZN6icu_776number21SimpleNumberFormatteraSEOS1_.exit: ; preds = %11
  %15 = load i32, ptr %3, align 8, !tbaa !85
  store i32 %15, ptr %9, align 8, !tbaa !85
  %16 = getelementptr inbounds nuw i8, ptr %3, i64 8
  %17 = load ptr, ptr %16, align 8, !tbaa !91
  store ptr %17, ptr %10, align 8, !tbaa !91
  %18 = getelementptr inbounds nuw i8, ptr %3, i64 16
  %19 = load ptr, ptr %18, align 8, !tbaa !92
  %20 = getelementptr inbounds nuw i8, ptr %5, i64 24
  store ptr %19, ptr %20, align 8, !tbaa !92
  %21 = getelementptr inbounds nuw i8, ptr %3, i64 24
  %22 = load ptr, ptr %21, align 8, !tbaa !93
  %23 = getelementptr inbounds nuw i8, ptr %5, i64 32
  store ptr %22, ptr %23, align 8, !tbaa !93
  call void @llvm.memset.p0.i64(ptr noundef nonnull align 8 dereferenceable(24) %16, i8 0, i64 24, i1 false)
  invoke void @_ZN6icu_776number21SimpleNumberFormatter7cleanupEv(ptr noundef nonnull align 8 dereferenceable(32) %3)
          to label %_ZN6icu_776number21SimpleNumberFormatterD2Ev.exit unwind label %24

24:                                               ; preds = %_ZN6icu_776number21SimpleNumberFormatteraSEOS1_.exit
  %25 = landingpad { ptr, i32 }
          catch ptr null
  %26 = extractvalue { ptr, i32 } %25, 0
  call void @__clang_call_terminate(ptr %26) #17
  unreachable

_ZN6icu_776number21SimpleNumberFormatterD2Ev.exit: ; preds = %_ZN6icu_776number21SimpleNumberFormatteraSEOS1_.exit
  call void @_ZN6icu_776LocaleD1Ev(ptr noundef nonnull align 8 dereferenceable(217) %4) #15
  call void @llvm.lifetime.end.p0(i64 224, ptr nonnull %4) #15
  call void @llvm.lifetime.end.p0(i64 32, ptr nonnull %3) #15
  br label %29

27:                                               ; preds = %8
  %28 = landingpad { ptr, i32 }
          cleanup
  call void @_ZN6icu_776LocaleD1Ev(ptr noundef nonnull align 8 dereferenceable(217) %4) #15
  call void @llvm.lifetime.end.p0(i64 224, ptr nonnull %4) #15
  call void @llvm.lifetime.end.p0(i64 32, ptr nonnull %3) #15
  resume { ptr, i32 } %28

29:                                               ; preds = %_ZN6icu_776number21SimpleNumberFormatterD2Ev.exit, %7
  ret ptr %5
}